; Function Attrs: mustprogress nounwind uwtable
define void @_ZN15TCPStreamDialogD2Ev(ptr noundef nonnull align 8 dereferenceable(584) %0) unnamed_addr #0 align 2 personality ptr @__gxx_personality_v0 {
  store ptr getelementptr inbounds ({ [59 x ptr], [10 x ptr] }, ptr @_ZTV15TCPStreamDialog, i64 0, i32 0, i64 2), ptr %0, align 8
  %2 = getelementptr inbounds i8, ptr %0, i64 16
  store ptr getelementptr inbounds ({ [59 x ptr], [10 x ptr] }, ptr @_ZTV15TCPStreamDialog, i64 0, i32 1, i64 2), ptr %2, align 8
  %3 = getelementptr inbounds i8, ptr %0, i64 128
  invoke void @graph_segment_list_free(ptr noundef nonnull %3)
          to label %4 unwind label %44

4:                                                ; preds = %1
  %5 = getelementptr inbounds i8, ptr %0, i64 64
  %6 = load ptr, ptr %5, align 8
  %7 = icmp eq ptr %6, null
  br i1 %7, label %9, label %8

8:                                                ; preds = %4
  tail call void @_ZdlPv(ptr noundef nonnull %6) #25
  br label %9

9:                                                ; preds = %8, %4
  %10 = getelementptr inbounds i8, ptr %0, i64 496
  tail call void @_ZN5QMenuD1Ev(ptr noundef nonnull align 8 dereferenceable(40) %10) #24
  %11 = getelementptr inbounds i8, ptr %0, i64 216
  %12 = load ptr, ptr %11, align 8
  %.not.i.i.i = icmp eq ptr %12, null
  br i1 %.not.i.i.i, label %_ZN7QStringD2Ev.exit, label %_ZN17QArrayDataPointerIDsE5derefEv.exit.i.i

_ZN17QArrayDataPointerIDsE5derefEv.exit.i.i:      ; preds = %9
  %13 = atomicrmw sub ptr %12, i32 1 seq_cst, align 4
  %.not.i.i = icmp eq i32 %13, 1
  br i1 %.not.i.i, label %14, label %_ZN7QStringD2Ev.exit

14:                                               ; preds = %_ZN17QArrayDataPointerIDsE5derefEv.exit.i.i
  %15 = load ptr, ptr %11, align 8
  tail call void @_ZN10QArrayData10deallocateEPS_xx(ptr noundef %15, i64 noundef 2, i64 noundef 8) #24
  br label %_ZN7QStringD2Ev.exit

_ZN7QStringD2Ev.exit:                             ; preds = %9, %_ZN17QArrayDataPointerIDsE5derefEv.exit.i.i, %14
  %16 = getelementptr inbounds i8, ptr %0, i64 104
  %17 = load ptr, ptr %16, align 8
  %.not.i.i1 = icmp eq ptr %17, null
  br i1 %.not.i.i1, label %_ZN4QMapIdP7segmentED2Ev.exit, label %18

18:                                               ; preds = %_ZN7QStringD2Ev.exit
  %19 = atomicrmw sub ptr %17, i32 1 seq_cst, align 4
  %.not2.i.i = icmp eq i32 %19, 1
  br i1 %.not2.i.i, label %20, label %_ZN4QMapIdP7segmentED2Ev.exit

20:                                               ; preds = %18
  %21 = load ptr, ptr %16, align 8
  %22 = icmp eq ptr %21, null
  br i1 %22, label %_ZN4QMapIdP7segmentED2Ev.exit, label %23

23:                                               ; preds = %20
  %24 = getelementptr inbounds i8, ptr %21, i64 8
  %25 = getelementptr inbounds i8, ptr %21, i64 24
  %26 = load ptr, ptr %25, align 8
  invoke void @_ZNSt8_Rb_treeIdSt4pairIKdP7segmentESt10_Select1stIS4_ESt4lessIdESaIS4_EE8_M_eraseEPSt13_Rb_tree_nodeIS4_E(ptr noundef nonnull align 8 dereferenceable(48) %24, ptr noundef %26)
          to label %_ZN8QMapDataISt3mapIdP7segmentSt4lessIdESaISt4pairIKdS2_EEEED2Ev.exit.i.i unwind label %27

27:                                               ; preds = %23
  %28 = landingpad { ptr, i32 }
          catch ptr null
  %29 = extractvalue { ptr, i32 } %28, 0
  tail call void @__clang_call_terminate(ptr %29) #27
  unreachable

_ZN8QMapDataISt3mapIdP7segmentSt4lessIdESaISt4pairIKdS2_EEEED2Ev.exit.i.i: ; preds = %23
  tail call void @_ZdlPv(ptr noundef nonnull %21) #25
  br label %_ZN4QMapIdP7segmentED2Ev.exit

_ZN4QMapIdP7segmentED2Ev.exit:                    ; preds = %_ZN7QStringD2Ev.exit, %18, %20, %_ZN8QMapDataISt3mapIdP7segmentSt4lessIdESaISt4pairIKdS2_EEEED2Ev.exit.i.i
  %30 = getelementptr inbounds i8, ptr %0, i64 80
  %31 = load ptr, ptr %30, align 8
  %.not.i.i2 = icmp eq ptr %31, null
  br i1 %.not.i.i2, label %_ZN9QMultiMapIdP7segmentED2Ev.exit, label %32

32:                                               ; preds = %_ZN4QMapIdP7segmentED2Ev.exit
  %33 = atomicrmw sub ptr %31, i32 1 seq_cst, align 4
  %.not2.i.i3 = icmp eq i32 %33, 1
  br i1 %.not2.i.i3, label %34, label %_ZN9QMultiMapIdP7segmentED2Ev.exit

34:                                               ; preds = %32
  %35 = load ptr, ptr %30, align 8
  %36 = icmp eq ptr %35, null
  br i1 %36, label %_ZN9QMultiMapIdP7segmentED2Ev.exit, label %37

37:                                               ; preds = %34
  %38 = getelementptr inbounds i8, ptr %35, i64 8
  %39 = getelementptr inbounds i8, ptr %35, i64 24
  %40 = load ptr, ptr %39, align 8
  invoke void @_ZNSt8_Rb_treeIdSt4pairIKdP7segmentESt10_Select1stIS4_ESt4lessIdESaIS4_EE8_M_eraseEPSt13_Rb_tree_nodeIS4_E(ptr noundef nonnull align 8 dereferenceable(48) %38, ptr noundef %40)
          to label %_ZN8QMapDataISt8multimapIdP7segmentSt4lessIdESaISt4pairIKdS2_EEEED2Ev.exit.i.i unwind label %41

41:                                               ; preds = %37
  %42 = landingpad { ptr, i32 }
          catch ptr null
  %43 = extractvalue { ptr, i32 } %42, 0
  tail call void @__clang_call_terminate(ptr %43) #27
  unreachable

_ZN8QMapDataISt8multimapIdP7segmentSt4lessIdESaISt4pairIKdS2_EEEED2Ev.exit.i.i: ; preds = %37
  tail call void @_ZdlPv(ptr noundef nonnull %35) #25
  br label %_ZN9QMultiMapIdP7segmentED2Ev.exit

_ZN9QMultiMapIdP7segmentED2Ev.exit:               ; preds = %_ZN4QMapIdP7segmentED2Ev.exit, %32, %34, %_ZN8QMapDataISt8multimapIdP7segmentSt4lessIdESaISt4pairIKdS2_EEEED2Ev.exit.i.i
  tail call void @_ZN19GeometryStateDialogD2Ev(ptr noundef nonnull align 8 dereferenceable(64) %0) #24
  ret void

44:                                               ; preds = %1
  %45 = landingpad { ptr, i32 }
          catch ptr null
  %46 = extractvalue { ptr, i32 } %45, 0
  tail call void @__clang_call_terminate(ptr %46) #27
  unreachable
}